target datalayout = "e-m:e-p270:32:32-p271:32:32-p272:64:64-i64:64-i128:128-f80:128-n8:16:32:64-S128"
target triple = "x86_64-pc-linux-gnu"

%struct.HCS_t = type { i8, i8 }
%struct.SI13_PBCCH_Location_t = type { i8, %union.anon.21 }
%union.anon.21 = type { %struct.Location_Repeat_t }
%struct.Location_Repeat_t = type { i8, i8 }
%struct.Cell_Selection_Params_With_FreqDiff_t = type { i8, i8, %struct.Cell_Selection_t }
%struct.Cell_Selection_t = type { i8, i8, i8, i8, i8, i8, i8, i8, i8, i8, i8, i8, i8, %struct.HCS_t, i8, %struct.SI13_PBCCH_Location_t }

; Function Attrs: nounwind null_pointer_is_valid sspstrong uwtable
define internal signext i16 @callback_init_Cell_Selection_Params_FREQUENCY_DIFF(ptr noundef %0, ptr noundef %1, ptr noundef %2, ptr noundef %3, i32 noundef %4, i32 noundef %5, ptr noundef %6) #4 {
  %8 = alloca ptr, align 8
  %9 = alloca ptr, align 8
  %10 = alloca ptr, align 8
  %11 = alloca ptr, align 8
  %12 = alloca i32, align 4
  %13 = alloca i32, align 4
  %14 = alloca ptr, align 8
  %15 = alloca i32, align 4
  %16 = alloca i8, align 1
  %17 = alloca ptr, align 8
  store ptr %0, ptr %8, align 8
  store ptr %1, ptr %9, align 8
  store ptr %2, ptr %10, align 8
  store ptr %3, ptr %11, align 8
  store i32 %4, ptr %12, align 4
  store i32 %5, ptr %13, align 4
  store ptr %6, ptr %14, align 8
  call void @llvm.lifetime.start.p0(i64 4, ptr %15) #5
  call void @llvm.lifetime.start.p0(i64 1, ptr %16) #5
  %18 = load ptr, ptr %10, align 8
  %19 = load i8, ptr %18, align 1
  store i8 %19, ptr %16, align 1
  call void @llvm.lifetime.start.p0(i64 8, ptr %17) #5
  %20 = load ptr, ptr %11, align 8
  store ptr %20, ptr %17, align 8
  store i32 0, ptr %15, align 4
  br label %21

21:                                               ; preds = %28, %7
  %22 = load i32, ptr %15, align 4
  %23 = icmp ult i32 %22, 16
  br i1 %23, label %24, label %33

24:                                               ; preds = %21
  %25 = load i8, ptr %16, align 1
  %26 = load ptr, ptr %17, align 8
  %27 = getelementptr inbounds nuw %struct.Cell_Selection_Params_With_FreqDiff_t, ptr %26, i32 0, i32 0
  store i8 %25, ptr %27, align 1
  br label %28

28:                                               ; preds = %24
  %29 = load i32, ptr %15, align 4
  %30 = add i32 %29, 1
  store i32 %30, ptr %15, align 4
  %31 = load ptr, ptr %17, align 8
  %32 = getelementptr %struct.Cell_Selection_Params_With_FreqDiff_t, ptr %31, i32 1
  store ptr %32, ptr %17, align 8
  br label %21, !llvm.loop !17

33:                                               ; preds = %21
  call void @llvm.lifetime.end.p0(i64 8, ptr %17) #5
  call void @llvm.lifetime.end.p0(i64 1, ptr %16) #5
  call void @llvm.lifetime.end.p0(i64 4, ptr %15) #5
  ret i16 0
}