; Function Attrs: nofree norecurse nosync nounwind null_pointer_is_valid sspstrong memory(argmem: readwrite) uwtable
define internal noundef signext i16 @callback_init_Cell_Selection_Params_FREQUENCY_DIFF(ptr readnone captures(none) %0, ptr readnone captures(none) %1, ptr noundef readonly captures(none) %2, ptr noundef writeonly captures(none) %3, i32 %4, i32 %5, ptr readnone captures(none) %6) #4 {
  %8 = load i8, ptr %2, align 1
  br label %9

9:                                                ; preds = %7, %9
  %.08 = phi ptr [ %3, %7 ], [ %11, %9 ]
  %.067 = phi i32 [ 0, %7 ], [ %10, %9 ]
  store i8 %8, ptr %.08, align 1
  %10 = add nuw nsw i32 %.067, 1
  %11 = getelementptr i8, ptr %.08, i64 21
  %exitcond.not = icmp eq i32 %10, 16
  br i1 %exitcond.not, label %12, label %9, !llvm.loop !15

12:                                               ; preds = %9
  ret i16 0
}